target datalayout = "e-m:e-p270:32:32-p271:32:32-p272:64:64-i64:64-i128:128-f80:128-n8:16:32:64-S128"
target triple = "x86_64-pc-linux-gnu"

%struct.VP8LBitReader = type { i64, ptr, i64, i64, i32, i32 }
%struct.HuffmanTables = type { %struct.HuffmanTablesSegment, ptr }
%struct.HuffmanTablesSegment = type { ptr, ptr, ptr, i32 }
%struct.VP8LDecoder = type { i32, i32, ptr, ptr, ptr, ptr, %struct.VP8LBitReader, i32, %struct.VP8LBitReader, i32, i32, i32, i32, i32, i32, %struct.VP8LMetadata, i32, [4 x %struct.VP8LTransform], i32, ptr, ptr }
%struct.VP8LMetadata = type { i32, %struct.VP8LColorCache, %struct.VP8LColorCache, i32, i32, i32, ptr, i32, ptr, %struct.HuffmanTables }
%struct.VP8LColorCache = type { ptr, i32, i32 }
%struct.VP8LTransform = type { i32, i32, i32, i32, ptr }
%struct.VP8Io = type { i32, i32, i32, i32, i32, ptr, ptr, ptr, i32, i32, ptr, ptr, ptr, ptr, i32, i64, ptr, i32, i32, i32, i32, i32, i32, i32, i32, i32, ptr }

; Function Attrs: nounwind uwtable
define internal i32 @ReadImageInfo(ptr noundef %0, ptr noundef %1, ptr noundef %2, ptr noundef %3) #0 {
  %5 = alloca i32, align 4
  %6 = alloca ptr, align 8
  %7 = alloca ptr, align 8
  %8 = alloca ptr, align 8
  %9 = alloca ptr, align 8
  store ptr %0, ptr %6, align 8, !tbaa !15
  store ptr %1, ptr %7, align 8, !tbaa !11
  store ptr %2, ptr %8, align 8, !tbaa !11
  store ptr %3, ptr %9, align 8, !tbaa !11
  %10 = load ptr, ptr %6, align 8, !tbaa !15
  %11 = call i32 @VP8LReadBits(ptr noundef %10, i32 noundef 8)
  %12 = icmp ne i32 %11, 47
  br i1 %12, label %13, label %14

13:                                               ; preds = %4
  store i32 0, ptr %5, align 4
  br label %37

14:                                               ; preds = %4
  %15 = load ptr, ptr %6, align 8, !tbaa !15
  %16 = call i32 @VP8LReadBits(ptr noundef %15, i32 noundef 14)
  %17 = add i32 %16, 1
  %18 = load ptr, ptr %7, align 8, !tbaa !11
  store i32 %17, ptr %18, align 4, !tbaa !13
  %19 = load ptr, ptr %6, align 8, !tbaa !15
  %20 = call i32 @VP8LReadBits(ptr noundef %19, i32 noundef 14)
  %21 = add i32 %20, 1
  %22 = load ptr, ptr %8, align 8, !tbaa !11
  store i32 %21, ptr %22, align 4, !tbaa !13
  %23 = load ptr, ptr %6, align 8, !tbaa !15
  %24 = call i32 @VP8LReadBits(ptr noundef %23, i32 noundef 1)
  %25 = load ptr, ptr %9, align 8, !tbaa !11
  store i32 %24, ptr %25, align 4, !tbaa !13
  %26 = load ptr, ptr %6, align 8, !tbaa !15
  %27 = call i32 @VP8LReadBits(ptr noundef %26, i32 noundef 3)
  %28 = icmp ne i32 %27, 0
  br i1 %28, label %29, label %30

29:                                               ; preds = %14
  store i32 0, ptr %5, align 4
  br label %37

30:                                               ; preds = %14
  %31 = load ptr, ptr %6, align 8, !tbaa !15
  %32 = getelementptr inbounds nuw %struct.VP8LBitReader, ptr %31, i32 0, i32 5
  %33 = load i32, ptr %32, align 4, !tbaa !16
  %34 = icmp ne i32 %33, 0
  %35 = xor i1 %34, true
  %36 = zext i1 %35 to i32
  store i32 %36, ptr %5, align 4
  br label %37

37:                                               ; preds = %30, %29, %13
  %38 = load i32, ptr %5, align 4
  ret i32 %38
}

; Function Attrs: nounwind uwtable
define internal i32 @VP8LSetError(ptr noundef %0, i32 noundef %1) #0 {
  %3 = alloca ptr, align 8
  %4 = alloca i32, align 4
  store ptr %0, ptr %3, align 8, !tbaa !18
  store i32 %1, ptr %4, align 4, !tbaa !13
  %5 = load ptr, ptr %3, align 8, !tbaa !18
  %6 = getelementptr inbounds nuw %struct.VP8LDecoder, ptr %5, i32 0, i32 0
  %7 = load i32, ptr %6, align 8, !tbaa !46
  %8 = icmp eq i32 %7, 0
  br i1 %8, label %14, label %9

9:                                                ; preds = %2
  %10 = load ptr, ptr %3, align 8, !tbaa !18
  %11 = getelementptr inbounds nuw %struct.VP8LDecoder, ptr %10, i32 0, i32 0
  %12 = load i32, ptr %11, align 8, !tbaa !46
  %13 = icmp eq i32 %12, 5
  br i1 %13, label %14, label %18

14:                                               ; preds = %9, %2
  %15 = load i32, ptr %4, align 4, !tbaa !13
  %16 = load ptr, ptr %3, align 8, !tbaa !18
  %17 = getelementptr inbounds nuw %struct.VP8LDecoder, ptr %16, i32 0, i32 0
  store i32 %15, ptr %17, align 8, !tbaa !46
  br label %18

18:                                               ; preds = %14, %9
  ret i32 0
}

; Function Attrs: nounwind uwtable
define hidden i32 @VP8LDecodeHeader(ptr noundef %0, ptr noundef %1) #0 {
  %3 = alloca i32, align 4
  %4 = alloca ptr, align 8
  %5 = alloca ptr, align 8
  %6 = alloca i32, align 4
  %7 = alloca i32, align 4
  %8 = alloca i32, align 4
  %9 = alloca i32, align 4
  store ptr %0, ptr %4, align 8, !tbaa !18
  store ptr %1, ptr %5, align 8, !tbaa !104
  call void @llvm.lifetime.start.p0(i64 4, ptr %6) #6
  call void @llvm.lifetime.start.p0(i64 4, ptr %7) #6
  call void @llvm.lifetime.start.p0(i64 4, ptr %8) #6
  %10 = load ptr, ptr %4, align 8, !tbaa !18
  %11 = icmp eq ptr %10, null
  br i1 %11, label %12, label %13

12:                                               ; preds = %2
  store i32 0, ptr %3, align 4
  store i32 1, ptr %9, align 4
  br label %58

13:                                               ; preds = %2
  %14 = load ptr, ptr %5, align 8, !tbaa !104
  %15 = icmp eq ptr %14, null
  br i1 %15, label %16, label %19

16:                                               ; preds = %13
  %17 = load ptr, ptr %4, align 8, !tbaa !18
  %18 = call i32 @VP8LSetError(ptr noundef %17, i32 noundef 2)
  store i32 %18, ptr %3, align 4
  store i32 1, ptr %9, align 4
  br label %58

19:                                               ; preds = %13
  %20 = load ptr, ptr %5, align 8, !tbaa !104
  %21 = load ptr, ptr %4, align 8, !tbaa !18
  %22 = getelementptr inbounds nuw %struct.VP8LDecoder, ptr %21, i32 0, i32 2
  store ptr %20, ptr %22, align 8, !tbaa !74
  %23 = load ptr, ptr %4, align 8, !tbaa !18
  %24 = getelementptr inbounds nuw %struct.VP8LDecoder, ptr %23, i32 0, i32 0
  store i32 0, ptr %24, align 8, !tbaa !46
  %25 = load ptr, ptr %4, align 8, !tbaa !18
  %26 = getelementptr inbounds nuw %struct.VP8LDecoder, ptr %25, i32 0, i32 6
  %27 = load ptr, ptr %5, align 8, !tbaa !104
  %28 = getelementptr inbounds nuw %struct.VP8Io, ptr %27, i32 0, i32 16
  %29 = load ptr, ptr %28, align 8, !tbaa !105
  %30 = load ptr, ptr %5, align 8, !tbaa !104
  %31 = getelementptr inbounds nuw %struct.VP8Io, ptr %30, i32 0, i32 15
  %32 = load i64, ptr %31, align 8, !tbaa !106
  call void @VP8LInitBitReader(ptr noundef %26, ptr noundef %29, i64 noundef %32)
  %33 = load ptr, ptr %4, align 8, !tbaa !18
  %34 = getelementptr inbounds nuw %struct.VP8LDecoder, ptr %33, i32 0, i32 6
  %35 = call i32 @ReadImageInfo(ptr noundef %34, ptr noundef %6, ptr noundef %7, ptr noundef %8)
  %36 = icmp ne i32 %35, 0
  br i1 %36, label %40, label %37

37:                                               ; preds = %19
  %38 = load ptr, ptr %4, align 8, !tbaa !18
  %39 = call i32 @VP8LSetError(ptr noundef %38, i32 noundef 3)
  br label %56

40:                                               ; preds = %19
  %41 = load ptr, ptr %4, align 8, !tbaa !18
  %42 = getelementptr inbounds nuw %struct.VP8LDecoder, ptr %41, i32 0, i32 1
  store i32 2, ptr %42, align 4, !tbaa !59
  %43 = load i32, ptr %6, align 4, !tbaa !13
  %44 = load ptr, ptr %5, align 8, !tbaa !104
  %45 = getelementptr inbounds nuw %struct.VP8Io, ptr %44, i32 0, i32 0
  store i32 %43, ptr %45, align 8, !tbaa !76
  %46 = load i32, ptr %7, align 4, !tbaa !13
  %47 = load ptr, ptr %5, align 8, !tbaa !104
  %48 = getelementptr inbounds nuw %struct.VP8Io, ptr %47, i32 0, i32 1
  store i32 %46, ptr %48, align 4, !tbaa !77
  %49 = load i32, ptr %6, align 4, !tbaa !13
  %50 = load i32, ptr %7, align 4, !tbaa !13
  %51 = load ptr, ptr %4, align 8, !tbaa !18
  %52 = call i32 @DecodeImageStream(i32 noundef %49, i32 noundef %50, i32 noundef 1, ptr noundef %51, ptr noundef null)
  %53 = icmp ne i32 %52, 0
  br i1 %53, label %55, label %54

54:                                               ; preds = %40
  br label %56

55:                                               ; preds = %40
  store i32 1, ptr %3, align 4
  store i32 1, ptr %9, align 4
  br label %58

56:                                               ; preds = %54, %37
  %57 = load ptr, ptr %4, align 8, !tbaa !18
  call void @VP8LClear(ptr noundef %57)
  store i32 0, ptr %3, align 4
  store i32 1, ptr %9, align 4
  br label %58

58:                                               ; preds = %56, %55, %16, %12
  call void @llvm.lifetime.end.p0(i64 4, ptr %8) #6
  call void @llvm.lifetime.end.p0(i64 4, ptr %7) #6
  call void @llvm.lifetime.end.p0(i64 4, ptr %6) #6
  %59 = load i32, ptr %3, align 4
  ret i32 %59
}