; Function Attrs: nounwind uwtable
define hidden range(i32 0, 2) i32 @VP8LDecodeHeader(ptr noundef %0, ptr noundef %1) local_unnamed_addr #1 {
  %3 = icmp eq ptr %0, null
  br i1 %3, label %VP8LSetError.exit, label %4

4:                                                ; preds = %2
  %5 = icmp eq ptr %1, null
  br i1 %5, label %6, label %9

6:                                                ; preds = %4
  %7 = load i32, ptr %0, align 8, !tbaa !13
  switch i32 %7, label %VP8LSetError.exit [
    i32 0, label %8
    i32 5, label %8
  ]

8:                                                ; preds = %6, %6
  store i32 2, ptr %0, align 8, !tbaa !13
  br label %VP8LSetError.exit

9:                                                ; preds = %4
  %10 = getelementptr inbounds nuw i8, ptr %0, i64 8
  store ptr %1, ptr %10, align 8, !tbaa !71
  store i32 0, ptr %0, align 8, !tbaa !13
  %11 = getelementptr inbounds nuw i8, ptr %0, i64 40
  %12 = getelementptr inbounds nuw i8, ptr %1, i64 104
  %13 = load ptr, ptr %12, align 8, !tbaa !121
  %14 = getelementptr inbounds nuw i8, ptr %1, i64 96
  %15 = load i64, ptr %14, align 8, !tbaa !122
  tail call void @VP8LInitBitReader(ptr noundef nonnull %11, ptr noundef %13, i64 noundef %15) #8
  %16 = tail call i32 @VP8LReadBits(ptr noundef nonnull %11, i32 noundef 8) #8
  %.not.i = icmp eq i32 %16, 47
  br i1 %.not.i, label %17, label %ReadImageInfo.exit.thread

17:                                               ; preds = %9
  %18 = tail call i32 @VP8LReadBits(ptr noundef nonnull %11, i32 noundef 14) #8
  %19 = add i32 %18, 1
  %20 = tail call i32 @VP8LReadBits(ptr noundef nonnull %11, i32 noundef 14) #8
  %21 = add i32 %20, 1
  %22 = tail call i32 @VP8LReadBits(ptr noundef nonnull %11, i32 noundef 1) #8
  %23 = tail call i32 @VP8LReadBits(ptr noundef nonnull %11, i32 noundef 3) #8
  %.not9.i = icmp eq i32 %23, 0
  br i1 %.not9.i, label %ReadImageInfo.exit, label %ReadImageInfo.exit.thread

ReadImageInfo.exit:                               ; preds = %17
  %24 = getelementptr inbounds nuw i8, ptr %0, i64 76
  %25 = load i32, ptr %24, align 4, !tbaa !52
  %.not10.i.not = icmp eq i32 %25, 0
  br i1 %.not10.i.not, label %28, label %ReadImageInfo.exit.thread

ReadImageInfo.exit.thread:                        ; preds = %17, %9, %ReadImageInfo.exit
  %26 = load i32, ptr %0, align 8, !tbaa !13
  switch i32 %26, label %VP8LSetError.exit19 [
    i32 0, label %27
    i32 5, label %27
  ]

27:                                               ; preds = %ReadImageInfo.exit.thread, %ReadImageInfo.exit.thread
  store i32 3, ptr %0, align 8, !tbaa !13
  br label %VP8LSetError.exit19

28:                                               ; preds = %ReadImageInfo.exit
  %29 = getelementptr inbounds nuw i8, ptr %0, i64 4
  store i32 2, ptr %29, align 4, !tbaa !53
  store i32 %19, ptr %1, align 8, !tbaa !73
  %30 = getelementptr inbounds nuw i8, ptr %1, i64 4
  store i32 %21, ptr %30, align 4, !tbaa !74
  %31 = tail call fastcc i32 @DecodeImageStream(i32 noundef %19, i32 noundef %21, i32 noundef 1, ptr noundef %0, ptr noundef null)
  %.not18 = icmp eq i32 %31, 0
  br i1 %.not18, label %VP8LSetError.exit19, label %VP8LSetError.exit

VP8LSetError.exit19:                              ; preds = %27, %ReadImageInfo.exit.thread, %28
  tail call fastcc void @VP8LClear(ptr noundef %0)
  br label %VP8LSetError.exit

VP8LSetError.exit:                                ; preds = %8, %6, %28, %2, %VP8LSetError.exit19
  %.0 = phi i32 [ 0, %VP8LSetError.exit19 ], [ 0, %2 ], [ 1, %28 ], [ 0, %6 ], [ 0, %8 ]
  ret i32 %.0
}